; Function Attrs: nofree nounwind uwtable
define void @Abc_CexPrintStats(ptr noundef %0) local_unnamed_addr #4 {
  %magicptr = ptrtoint ptr %0 to i64
  switch i64 %magicptr, label %.preheader [
    i64 0, label %6
    i64 1, label %7
  ]

.preheader:                                       ; preds = %1
  %2 = getelementptr inbounds nuw i8, ptr %0, i64 16
  %3 = load i32, ptr %2, align 4, !tbaa !9
  %4 = icmp sgt i32 %3, 0
  br i1 %4, label %.lr.ph, label %._crit_edge

.lr.ph:                                           ; preds = %.preheader
  %5 = getelementptr inbounds nuw i8, ptr %0, i64 20
  br label %8

6:                                                ; preds = %1
  %puts19 = tail call i32 @puts(ptr nonnull dereferenceable(1) @str.7)
  br label %31

7:                                                ; preds = %1
  %puts = tail call i32 @puts(ptr nonnull dereferenceable(1) @str.6)
  br label %31

8:                                                ; preds = %.lr.ph, %8
  %.021 = phi i32 [ 0, %.lr.ph ], [ %16, %8 ]
  %.01620 = phi i32 [ 0, %.lr.ph ], [ %17, %8 ]
  %9 = lshr i32 %.01620, 5
  %10 = zext nneg i32 %9 to i64
  %11 = getelementptr inbounds nuw i32, ptr %5, i64 %10
  %12 = load i32, ptr %11, align 4, !tbaa !12
  %13 = and i32 %.01620, 31
  %14 = lshr i32 %12, %13
  %15 = and i32 %14, 1
  %16 = add nuw nsw i32 %15, %.021
  %17 = add nuw nsw i32 %.01620, 1
  %exitcond.not = icmp eq i32 %17, %3
  br i1 %exitcond.not, label %._crit_edge, label %8, !llvm.loop !25

._crit_edge:                                      ; preds = %8, %.preheader
  %.0.lcssa = phi i32 [ 0, %.preheader ], [ %16, %8 ]
  %18 = load i32, ptr %0, align 4, !tbaa !10
  %19 = getelementptr inbounds nuw i8, ptr %0, i64 4
  %20 = load i32, ptr %19, align 4, !tbaa !11
  %21 = getelementptr inbounds nuw i8, ptr %0, i64 8
  %22 = load i32, ptr %21, align 4, !tbaa !3
  %23 = getelementptr inbounds nuw i8, ptr %0, i64 12
  %24 = load i32, ptr %23, align 4, !tbaa !8
  %25 = uitofp nneg i32 %.0.lcssa to double
  %26 = fmul double %25, 1.000000e+02
  %27 = sub nsw i32 %3, %22
  %28 = sitofp i32 %27 to double
  %29 = fdiv double %26, %28
  %30 = tail call i32 (ptr, ...) @printf(ptr noundef nonnull dereferenceable(1) @.str.7, i32 noundef %18, i32 noundef %20, i32 noundef %22, i32 noundef %24, i32 noundef %3, i32 noundef %.0.lcssa, double noundef %29)
  br label %31

31:                                               ; preds = %._crit_edge, %7, %6
  ret void
}